target datalayout = "e-m:e-p270:32:32-p271:32:32-p272:64:64-i64:64-i128:128-f80:128-n8:16:32:64-S128"
target triple = "x86_64-pc-linux-gnu"

%struct.AVFormatContext = type { ptr, ptr, ptr, ptr, ptr, i32, i32, ptr, i32, ptr, i32, ptr, ptr, i64, i64, i64, i32, i32, i32, i64, i64, ptr, i32, i32, ptr, i32, i32, i32, i32, ptr, i64, i32, i32, %struct.AVIOInterruptCB, i32, i32, i32, i32, i64, i32, i32, i32, i32, i32, i32, i32, i32, i32, i32, i32, i32, i64, i32, i32, i32, i32, i32, ptr, ptr, ptr, ptr, i32, ptr, ptr, ptr, ptr, i32, ptr, ptr, i64, ptr, ptr, ptr, i64 }
%struct.AVIOInterruptCB = type { ptr, ptr }

; Function Attrs: alwaysinline nounwind uwtable
define internal i64 @avio_tell(ptr noundef %0) #7 {
  %2 = alloca ptr, align 8
  store ptr %0, ptr %2, align 8, !tbaa !30
  %3 = load ptr, ptr %2, align 8, !tbaa !30
  %4 = call i64 @avio_seek(ptr noundef %3, i64 noundef 0, i32 noundef 1)
  ret i64 %4
}

; Function Attrs: nounwind uwtable
define internal i64 @gxf_read_timestamp(ptr noundef %0, i32 noundef %1, ptr noundef %2, i64 noundef %3) #0 {
  %5 = alloca i64, align 8
  %6 = alloca ptr, align 8
  %7 = alloca i32, align 4
  %8 = alloca ptr, align 8
  %9 = alloca i64, align 8
  %10 = alloca ptr, align 8
  %11 = alloca i64, align 8
  %12 = alloca i32, align 4
  store ptr %0, ptr %6, align 8, !tbaa !13
  store i32 %1, ptr %7, align 4, !tbaa !34
  store ptr %2, ptr %8, align 8, !tbaa !89
  store i64 %3, ptr %9, align 8, !tbaa !72
  call void @llvm.lifetime.start.p0(i64 8, ptr %10) #10
  %13 = load ptr, ptr %6, align 8, !tbaa !13
  %14 = getelementptr inbounds nuw %struct.AVFormatContext, ptr %13, i32 0, i32 4
  %15 = load ptr, ptr %14, align 8, !tbaa !15
  store ptr %15, ptr %10, align 8, !tbaa !30
  call void @llvm.lifetime.start.p0(i64 8, ptr %11) #10
  %16 = load ptr, ptr %10, align 8, !tbaa !30
  %17 = load ptr, ptr %8, align 8, !tbaa !89
  %18 = load i64, ptr %17, align 8, !tbaa !72
  %19 = call i64 @avio_seek(ptr noundef %16, i64 noundef %18, i32 noundef 0)
  %20 = icmp slt i64 %19, 0
  br i1 %20, label %21, label %22

21:                                               ; preds = %4
  store i64 -9223372036854775808, ptr %5, align 8
  store i32 1, ptr %12, align 4
  br label %33

22:                                               ; preds = %4
  %23 = load ptr, ptr %6, align 8, !tbaa !13
  %24 = load i64, ptr %9, align 8, !tbaa !72
  %25 = load ptr, ptr %8, align 8, !tbaa !89
  %26 = load i64, ptr %25, align 8, !tbaa !72
  %27 = sub nsw i64 %24, %26
  %28 = call i64 @gxf_resync_media(ptr noundef %23, i64 noundef %27, i32 noundef -1, i32 noundef -1)
  store i64 %28, ptr %11, align 8, !tbaa !72
  %29 = load ptr, ptr %10, align 8, !tbaa !30
  %30 = call i64 @avio_tell(ptr noundef %29)
  %31 = load ptr, ptr %8, align 8, !tbaa !89
  store i64 %30, ptr %31, align 8, !tbaa !72
  %32 = load i64, ptr %11, align 8, !tbaa !72
  store i64 %32, ptr %5, align 8
  store i32 1, ptr %12, align 4
  br label %33

33:                                               ; preds = %22, %21
  call void @llvm.lifetime.end.p0(i64 8, ptr %11) #10
  call void @llvm.lifetime.end.p0(i64 8, ptr %10) #10
  %34 = load i64, ptr %5, align 8
  ret i64 %34
}