; Function Attrs: nounwind uwtable
define internal range(i64 0, -9223372036854775807) i64 @gxf_read_timestamp(ptr noundef readonly captures(none) %0, i32 %1, ptr noundef captures(none) %2, i64 noundef %3) #1 {
  %5 = getelementptr inbounds nuw i8, ptr %0, i64 32
  %6 = load ptr, ptr %5, align 8, !tbaa !11
  %7 = load i64, ptr %2, align 8, !tbaa !76
  %8 = tail call i64 @avio_seek(ptr noundef %6, i64 noundef %7, i32 noundef 0) #7
  %9 = icmp slt i64 %8, 0
  br i1 %9, label %15, label %10

10:                                               ; preds = %4
  %11 = load i64, ptr %2, align 8, !tbaa !76
  %12 = sub nsw i64 %3, %11
  %.val = load ptr, ptr %5, align 8, !tbaa !11
  %13 = tail call fastcc i64 @gxf_resync_media(ptr %.val, i64 noundef %12, i32 noundef -1)
  %14 = tail call i64 @avio_seek(ptr noundef %6, i64 noundef 0, i32 noundef 1) #7
  store i64 %14, ptr %2, align 8, !tbaa !76
  br label %15

15:                                               ; preds = %4, %10
  %.0 = phi i64 [ %13, %10 ], [ -9223372036854775808, %4 ]
  ret i64 %.0
}